(dp0
I131
F1.02076
sI134
F1.01131
sI392
F0.889871
sI137
F1.00225
sI266
F0.83976
sI279
F0.838672
sI141
F0.990765
sI144
F0.982566
sI401
F0.897412
sI259
F0.842798
sI148
F0.972163
sI151
F0.964739
sI155
F0.955318
sI286
F0.838832
sI159
F0.946417
sI432
F0.926149
sI163
F0.938012
sI293
F0.839483
sI167
F0.930077
sI171
F0.92259
sI300
F0.840601
sI176
F0.91383
sI307
F0.842165
sI180
F0.907279
sI184
F0.901114
sI347
F0.853927
sI315
F0.84447
sI411
F0.906233
sI189
F0.893928
sI475
F0.971972
sI194
F0.887291
sI323
F0.8473
sI453
F0.947754
sI198
F0.882359
sI203
F0.876647
sI208
F0.871414
sI338
F0.853927
sI213
F0.866639
sI331
F0.850627
sI219
F0.861487
sI442
F0.93624
sI421
F0.915492
sI224
F0.857652
sI272
F0.839026
sI355
F0.863344
sI230
F0.853576
sI487
F0.98579
sI235
F0.850598
sI365
F0.869747
sI241
F0.847505
sI464
F0.959674
sI373
F0.875294
sI247
F0.844913
sI121
F1.0554
sI124
F1.04447
sI253
F0.842798
sI382
F0.881962
sI127
F1.03402
s.