(dp0
V151
p1
F1.0
sV155
p2
F1.0
sV338
p3
F1.0
sV134
p4
F1.0
sV194
p5
F1.0
sV453
p6
F1.0
sV331
p7
F1.0
sV144
p8
F1.0
sV315
p9
F1.0
sV219
p10
F1.0
sV392
p11
F1.0
sV272
p12
F1.0
sV259
p13
F1.0
sV137
p14
F1.0
sV253
p15
F1.0
sV279
p16
F1.0
sV230
p17
F1.0
sV171
p18
F1.0
sV198
p19
F1.0
sV213
p20
F1.0
sV224
p21
F1.0
sV323
p22
F1.0
sV180
p23
F1.0
sV347
p24
F1.0
sV401
p25
F1.0
sV464
p26
F1.0
sV421
p27
F1.0
sV365
p28
F1.0
sV131
p29
F1.0
sV286
p30
F1.0
sV235
p31
F1.0
sV203
p32
F1.0
sV184
p33
F1.0
sV141
p34
F1.0
sV300
p35
F1.0
sV442
p36
F1.0
sV208
p37
F1.0
sV148
p38
F1.0
sV307
p39
F1.0
sV121
p40
F1.0
sV382
p41
F1.0
sV159
p42
F1.0
sV241
p43
F1.0
sV266
p44
F1.0
sV127
p45
F1.0
sV487
p46
F1.0
sV167
p47
F1.0
sV176
p48
F1.0
sV163
p49
F1.0
sV189
p50
F1.0
sV247
p51
F1.0
sV355
p52
F1.0
sV411
p53
F1.0
sV475
p54
F1.0
sV124
p55
F1.0
sV373
p56
F1.0
sV432
p57
F1.0
sV293
p58
F1.0
s.